target datalayout = "e-m:e-p270:32:32-p271:32:32-p272:64:64-i64:64-i128:128-f80:128-n8:16:32:64-S128"
target triple = "x86_64-pc-linux-gnu"

%struct.TCGOpDef = type { ptr, i8, i8, i8, i8, i8 }
%struct.OptContext = type { ptr, ptr, %struct.TCGTempSet, %struct.RBRootLeftCached, %struct.anon, i32 }
%struct.TCGTempSet = type { [8 x i64] }
%struct.RBRootLeftCached = type { %struct.RBRoot, ptr }
%struct.RBRoot = type { ptr }
%struct.anon = type { ptr, ptr }
%struct.TCGTemp = type { i64, i64, ptr, i64, ptr, i64, ptr }
%struct.QTailQLink = type { ptr, ptr }
%struct.TCGOp = type { i32, i32, %union.anon.2, [2 x i32], [0 x i64] }
%union.anon.2 = type { %struct.QTailQLink }
%struct.TempOptInfo = type { i8, ptr, ptr, %struct.anon.3, i64, i64, i64 }
%struct.anon.3 = type { ptr, ptr }

@tcg_op_defs = external constant [0 x %struct.TCGOpDef], align 8
@.str = private unnamed_addr constant [23 x i8] c"../qemu/tcg/optimize.c\00", align 1
@__func__.fold_sub_to_neg = private unnamed_addr constant [16 x i8] c"fold_sub_to_neg\00", align 1

; Function Attrs: inlinehint nounwind sspstrong uwtable
define internal i32 @clz64(i64 noundef %0) #3 {
  %2 = alloca i64, align 8
  store i64 %0, ptr %2, align 8
  %3 = load i64, ptr %2, align 8
  %4 = icmp ne i64 %3, 0
  br i1 %4, label %5, label %9

5:                                                ; preds = %1
  %6 = load i64, ptr %2, align 8
  %7 = call i64 @llvm.ctlz.i64(i64 %6, i1 true)
  %8 = trunc i64 %7 to i32
  br label %10

9:                                                ; preds = %1
  br label %10

10:                                               ; preds = %9, %5
  %11 = phi i32 [ %8, %5 ], [ 64, %9 ]
  ret i32 %11
}

; Function Attrs: nounwind sspstrong uwtable
define internal zeroext i1 @tcg_opt_gen_movi(ptr noundef %0, ptr noundef %1, i64 noundef %2, i64 noundef %3) #0 {
  %5 = alloca ptr, align 8
  %6 = alloca ptr, align 8
  %7 = alloca i64, align 8
  %8 = alloca i64, align 8
  store ptr %0, ptr %5, align 8
  store ptr %1, ptr %6, align 8
  store i64 %2, ptr %7, align 8
  store i64 %3, ptr %8, align 8
  %9 = load ptr, ptr %5, align 8
  %10 = load ptr, ptr %6, align 8
  %11 = load i64, ptr %7, align 8
  %12 = load ptr, ptr %5, align 8
  %13 = load i64, ptr %8, align 8
  %14 = call i64 @arg_new_constant(ptr noundef %12, i64 noundef %13)
  %15 = call zeroext i1 @tcg_opt_gen_mov(ptr noundef %9, ptr noundef %10, i64 noundef %11, i64 noundef %14)
  ret i1 %15
}

; Function Attrs: nounwind sspstrong uwtable
define internal zeroext i1 @fold_masks_zs(ptr noundef %0, ptr noundef %1, i64 noundef %2, i64 noundef %3) #0 {
  %5 = alloca i1, align 1
  %6 = alloca ptr, align 8
  %7 = alloca ptr, align 8
  %8 = alloca i64, align 8
  %9 = alloca i64, align 8
  %10 = alloca ptr, align 8
  %11 = alloca ptr, align 8
  %12 = alloca ptr, align 8
  %13 = alloca i32, align 4
  %14 = alloca i32, align 4
  %15 = alloca i32, align 4
  %16 = alloca i32, align 4
  %17 = alloca i32, align 4
  %18 = alloca i32, align 4
  %19 = alloca i32, align 4
  %20 = alloca i32, align 4
  store ptr %0, ptr %6, align 8
  store ptr %1, ptr %7, align 8
  store i64 %2, ptr %8, align 8
  store i64 %3, ptr %9, align 8
  call void @llvm.lifetime.start.p0(i64 8, ptr %10) #13
  %21 = load ptr, ptr %7, align 8
  %22 = load i32, ptr %21, align 8
  %23 = and i32 %22, 255
  %24 = zext i32 %23 to i64
  %25 = getelementptr inbounds nuw [0 x %struct.TCGOpDef], ptr @tcg_op_defs, i64 0, i64 %24
  store ptr %25, ptr %10, align 8
  call void @llvm.lifetime.start.p0(i64 8, ptr %11) #13
  store ptr null, ptr %11, align 8, !annotation !4
  call void @llvm.lifetime.start.p0(i64 8, ptr %12) #13
  store ptr null, ptr %12, align 8, !annotation !4
  call void @llvm.lifetime.start.p0(i64 4, ptr %13) #13
  store i32 0, ptr %13, align 4, !annotation !4
  br label %26

26:                                               ; preds = %4
  %27 = load ptr, ptr %10, align 8
  %28 = getelementptr inbounds nuw %struct.TCGOpDef, ptr %27, i32 0, i32 1
  %29 = load i8, ptr %28, align 8
  %30 = zext i8 %29 to i32
  %31 = icmp eq i32 %30, 1
  br i1 %31, label %33, label %32

32:                                               ; preds = %26
  unreachable

33:                                               ; preds = %26
  br label %34

34:                                               ; preds = %33
  br label %35

35:                                               ; preds = %34
  %36 = load ptr, ptr %6, align 8
  %37 = getelementptr inbounds nuw %struct.OptContext, ptr %36, i32 0, i32 5
  %38 = load i32, ptr %37, align 8
  %39 = icmp eq i32 %38, 0
  br i1 %39, label %40, label %46

40:                                               ; preds = %35
  %41 = load i64, ptr %8, align 8
  %42 = trunc i64 %41 to i32
  %43 = sext i32 %42 to i64
  store i64 %43, ptr %8, align 8
  %44 = load i64, ptr %9, align 8
  %45 = or i64 %44, -2147483648
  store i64 %45, ptr %9, align 8
  br label %46

46:                                               ; preds = %40, %35
  %47 = load i64, ptr %8, align 8
  %48 = icmp eq i64 %47, 0
  br i1 %48, label %49, label %57

49:                                               ; preds = %46
  %50 = load ptr, ptr %6, align 8
  %51 = load ptr, ptr %7, align 8
  %52 = load ptr, ptr %7, align 8
  %53 = getelementptr inbounds nuw %struct.TCGOp, ptr %52, i32 0, i32 4
  %54 = getelementptr inbounds [0 x i64], ptr %53, i64 0, i64 0
  %55 = load i64, ptr %54, align 8
  %56 = call zeroext i1 @tcg_opt_gen_movi(ptr noundef %50, ptr noundef %51, i64 noundef %55, i64 noundef 0)
  store i1 %56, ptr %5, align 1
  store i32 1, ptr %14, align 4
  br label %103

57:                                               ; preds = %46
  %58 = load ptr, ptr %7, align 8
  %59 = getelementptr inbounds nuw %struct.TCGOp, ptr %58, i32 0, i32 4
  %60 = getelementptr inbounds [0 x i64], ptr %59, i64 0, i64 0
  %61 = load i64, ptr %60, align 8
  %62 = call ptr @arg_temp(i64 noundef %61)
  store ptr %62, ptr %11, align 8
  %63 = load ptr, ptr %6, align 8
  %64 = load ptr, ptr %11, align 8
  call void @reset_ts(ptr noundef %63, ptr noundef %64)
  %65 = load ptr, ptr %11, align 8
  %66 = call ptr @ts_info(ptr noundef %65)
  store ptr %66, ptr %12, align 8
  %67 = load i64, ptr %8, align 8
  %68 = load ptr, ptr %12, align 8
  %69 = getelementptr inbounds nuw %struct.TempOptInfo, ptr %68, i32 0, i32 5
  store i64 %67, ptr %69, align 8
  %70 = load i64, ptr %9, align 8
  %71 = xor i64 %70, -1
  %72 = call i32 @clz64(i64 noundef %71)
  store i32 %72, ptr %13, align 4
  call void @llvm.lifetime.start.p0(i64 4, ptr %15) #13
  %73 = load i32, ptr %13, align 4
  store i32 %73, ptr %15, align 4
  call void @llvm.lifetime.start.p0(i64 4, ptr %16) #13
  %74 = load i64, ptr %8, align 8
  %75 = call i32 @clz64(i64 noundef %74)
  store i32 %75, ptr %16, align 4
  %76 = load i32, ptr %15, align 4
  %77 = load i32, ptr %16, align 4
  %78 = icmp sgt i32 %76, %77
  br i1 %78, label %79, label %81

79:                                               ; preds = %57
  %80 = load i32, ptr %15, align 4
  br label %83

81:                                               ; preds = %57
  %82 = load i32, ptr %16, align 4
  br label %83

83:                                               ; preds = %81, %79
  %84 = phi i32 [ %80, %79 ], [ %82, %81 ]
  store i32 %84, ptr %17, align 4
  call void @llvm.lifetime.end.p0(i64 4, ptr %16) #13
  call void @llvm.lifetime.end.p0(i64 4, ptr %15) #13
  %85 = load i32, ptr %17, align 4
  store i32 %85, ptr %13, align 4
  call void @llvm.lifetime.start.p0(i64 4, ptr %18) #13
  %86 = load i32, ptr %13, align 4
  %87 = sub i32 %86, 1
  store i32 %87, ptr %18, align 4
  call void @llvm.lifetime.start.p0(i64 4, ptr %19) #13
  store i32 0, ptr %19, align 4
  %88 = load i32, ptr %18, align 4
  %89 = load i32, ptr %19, align 4
  %90 = icmp sgt i32 %88, %89
  br i1 %90, label %91, label %93

91:                                               ; preds = %83
  %92 = load i32, ptr %18, align 4
  br label %95

93:                                               ; preds = %83
  %94 = load i32, ptr %19, align 4
  br label %95

95:                                               ; preds = %93, %91
  %96 = phi i32 [ %92, %91 ], [ %94, %93 ]
  store i32 %96, ptr %20, align 4
  call void @llvm.lifetime.end.p0(i64 4, ptr %19) #13
  call void @llvm.lifetime.end.p0(i64 4, ptr %18) #13
  %97 = load i32, ptr %20, align 4
  store i32 %97, ptr %13, align 4
  %98 = load i32, ptr %13, align 4
  %99 = zext i32 %98 to i64
  %100 = ashr i64 -9223372036854775808, %99
  %101 = load ptr, ptr %12, align 8
  %102 = getelementptr inbounds nuw %struct.TempOptInfo, ptr %101, i32 0, i32 6
  store i64 %100, ptr %102, align 8
  store i1 true, ptr %5, align 1
  store i32 1, ptr %14, align 4
  br label %103

103:                                              ; preds = %95, %49
  call void @llvm.lifetime.end.p0(i64 4, ptr %13) #13
  call void @llvm.lifetime.end.p0(i64 8, ptr %12) #13
  call void @llvm.lifetime.end.p0(i64 8, ptr %11) #13
  call void @llvm.lifetime.end.p0(i64 8, ptr %10) #13
  %104 = load i1, ptr %5, align 1
  ret i1 %104
}

; Function Attrs: inlinehint nounwind sspstrong uwtable
define internal zeroext i1 @ti_is_const(ptr noundef %0) #3 {
  %2 = alloca ptr, align 8
  store ptr %0, ptr %2, align 8
  %3 = load ptr, ptr %2, align 8
  %4 = getelementptr inbounds nuw %struct.TempOptInfo, ptr %3, i32 0, i32 0
  %5 = load i8, ptr %4, align 8, !range !7, !noundef !8
  %6 = trunc i8 %5 to i1
  ret i1 %6
}

; Function Attrs: nounwind sspstrong uwtable
define internal zeroext i1 @fold_masks_z(ptr noundef %0, ptr noundef %1, i64 noundef %2) #0 {
  %4 = alloca ptr, align 8
  %5 = alloca ptr, align 8
  %6 = alloca i64, align 8
  store ptr %0, ptr %4, align 8
  store ptr %1, ptr %5, align 8
  store i64 %2, ptr %6, align 8
  %7 = load ptr, ptr %4, align 8
  %8 = load ptr, ptr %5, align 8
  %9 = load i64, ptr %6, align 8
  %10 = call zeroext i1 @fold_masks_zs(ptr noundef %7, ptr noundef %8, i64 noundef %9, i64 noundef 0)
  ret i1 %10
}

; Function Attrs: inlinehint nounwind sspstrong uwtable
define internal ptr @ts_info(ptr noundef %0) #3 {
  %2 = alloca ptr, align 8
  store ptr %0, ptr %2, align 8
  %3 = load ptr, ptr %2, align 8
  %4 = getelementptr inbounds nuw %struct.TCGTemp, ptr %3, i32 0, i32 6
  %5 = load ptr, ptr %4, align 8
  ret ptr %5
}

; Function Attrs: inlinehint nounwind sspstrong uwtable
define internal zeroext i1 @ts_is_const(ptr noundef %0) #3 {
  %2 = alloca ptr, align 8
  store ptr %0, ptr %2, align 8
  %3 = load ptr, ptr %2, align 8
  %4 = call ptr @ts_info(ptr noundef %3)
  %5 = call zeroext i1 @ti_is_const(ptr noundef %4)
  ret i1 %5
}

; Function Attrs: inlinehint nounwind sspstrong uwtable
define internal ptr @arg_temp(i64 noundef %0) #3 {
  %2 = alloca i64, align 8
  store i64 %0, ptr %2, align 8
  %3 = load i64, ptr %2, align 8
  %4 = inttoptr i64 %3 to ptr
  ret ptr %4
}

; Function Attrs: nounwind sspstrong uwtable
define internal zeroext i1 @fold_neg_no_const(ptr noundef %0, ptr noundef %1) #0 {
  %3 = alloca ptr, align 8
  %4 = alloca ptr, align 8
  %5 = alloca i64, align 8
  store ptr %0, ptr %3, align 8
  store ptr %1, ptr %4, align 8
  call void @llvm.lifetime.start.p0(i64 8, ptr %5) #13
  %6 = load ptr, ptr %4, align 8
  %7 = getelementptr inbounds nuw %struct.TCGOp, ptr %6, i32 0, i32 4
  %8 = getelementptr inbounds [0 x i64], ptr %7, i64 0, i64 1
  %9 = load i64, ptr %8, align 8
  %10 = call ptr @arg_info(i64 noundef %9)
  %11 = getelementptr inbounds nuw %struct.TempOptInfo, ptr %10, i32 0, i32 5
  %12 = load i64, ptr %11, align 8
  store i64 %12, ptr %5, align 8
  %13 = load i64, ptr %5, align 8
  %14 = load i64, ptr %5, align 8
  %15 = sub i64 0, %14
  %16 = and i64 %13, %15
  %17 = sub i64 0, %16
  store i64 %17, ptr %5, align 8
  %18 = load ptr, ptr %3, align 8
  %19 = load ptr, ptr %4, align 8
  %20 = load i64, ptr %5, align 8
  %21 = call zeroext i1 @fold_masks_z(ptr noundef %18, ptr noundef %19, i64 noundef %20)
  call void @llvm.lifetime.end.p0(i64 8, ptr %5) #13
  ret i1 %21
}

; Function Attrs: inlinehint nounwind sspstrong uwtable
define internal ptr @arg_info(i64 noundef %0) #3 {
  %2 = alloca i64, align 8
  store i64 %0, ptr %2, align 8
  %3 = load i64, ptr %2, align 8
  %4 = call ptr @arg_temp(i64 noundef %3)
  %5 = call ptr @ts_info(ptr noundef %4)
  ret ptr %5
}

; Function Attrs: inlinehint nounwind sspstrong uwtable
define internal zeroext i1 @arg_is_const(i64 noundef %0) #3 {
  %2 = alloca i64, align 8
  store i64 %0, ptr %2, align 8
  %3 = load i64, ptr %2, align 8
  %4 = call ptr @arg_temp(i64 noundef %3)
  %5 = call zeroext i1 @ts_is_const(ptr noundef %4)
  ret i1 %5
}

; Function Attrs: nounwind sspstrong uwtable
define internal zeroext i1 @fold_sub_to_neg(ptr noundef %0, ptr noundef %1) #0 {
  %3 = alloca i1, align 1
  %4 = alloca ptr, align 8
  %5 = alloca ptr, align 8
  %6 = alloca i32, align 4
  %7 = alloca i8, align 1
  %8 = alloca i32, align 4
  store ptr %0, ptr %4, align 8
  store ptr %1, ptr %5, align 8
  call void @llvm.lifetime.start.p0(i64 4, ptr %6) #13
  store i32 0, ptr %6, align 4, !annotation !4
  call void @llvm.lifetime.start.p0(i64 1, ptr %7) #13
  store i8 0, ptr %7, align 1, !annotation !4
  %9 = load ptr, ptr %5, align 8
  %10 = getelementptr inbounds nuw %struct.TCGOp, ptr %9, i32 0, i32 4
  %11 = getelementptr inbounds [0 x i64], ptr %10, i64 0, i64 1
  %12 = load i64, ptr %11, align 8
  %13 = call zeroext i1 @arg_is_const(i64 noundef %12)
  br i1 %13, label %14, label %23

14:                                               ; preds = %2
  %15 = load ptr, ptr %5, align 8
  %16 = getelementptr inbounds nuw %struct.TCGOp, ptr %15, i32 0, i32 4
  %17 = getelementptr inbounds [0 x i64], ptr %16, i64 0, i64 1
  %18 = load i64, ptr %17, align 8
  %19 = call ptr @arg_info(i64 noundef %18)
  %20 = getelementptr inbounds nuw %struct.TempOptInfo, ptr %19, i32 0, i32 4
  %21 = load i64, ptr %20, align 8
  %22 = icmp ne i64 %21, 0
  br i1 %22, label %23, label %24

23:                                               ; preds = %14, %2
  store i1 false, ptr %3, align 1
  store i32 1, ptr %8, align 4
  br label %56

24:                                               ; preds = %14
  %25 = load ptr, ptr %4, align 8
  %26 = getelementptr inbounds nuw %struct.OptContext, ptr %25, i32 0, i32 5
  %27 = load i32, ptr %26, align 8
  switch i32 %27, label %31 [
    i32 0, label %28
    i32 1, label %29
    i32 3, label %30
    i32 4, label %30
    i32 5, label %30
  ]

28:                                               ; preds = %24
  store i32 54, ptr %6, align 4
  store i8 1, ptr %7, align 1
  br label %35

29:                                               ; preds = %24
  store i32 114, ptr %6, align 4
  store i8 1, ptr %7, align 1
  br label %35

30:                                               ; preds = %24, %24, %24
  store i32 158, ptr %6, align 4
  store i8 0, ptr %7, align 1
  br label %35

31:                                               ; preds = %24
  br label %32

32:                                               ; preds = %31
  call void @g_assertion_message_expr(ptr noundef null, ptr noundef @.str, i32 noundef 2658, ptr noundef @__func__.fold_sub_to_neg, ptr noundef null) #14
  unreachable

33:                                               ; No predecessors!
  br label %34

34:                                               ; preds = %33
  br label %35

35:                                               ; preds = %34, %30, %29, %28
  %36 = load i8, ptr %7, align 1, !range !7, !noundef !8
  %37 = trunc i8 %36 to i1
  br i1 %37, label %38, label %55

38:                                               ; preds = %35
  %39 = load i32, ptr %6, align 4
  %40 = load ptr, ptr %5, align 8
  %41 = load i32, ptr %40, align 8
  %42 = and i32 %39, 255
  %43 = and i32 %41, -256
  %44 = or i32 %43, %42
  store i32 %44, ptr %40, align 8
  %45 = load ptr, ptr %5, align 8
  %46 = getelementptr inbounds nuw %struct.TCGOp, ptr %45, i32 0, i32 4
  %47 = getelementptr inbounds [0 x i64], ptr %46, i64 0, i64 2
  %48 = load i64, ptr %47, align 8
  %49 = load ptr, ptr %5, align 8
  %50 = getelementptr inbounds nuw %struct.TCGOp, ptr %49, i32 0, i32 4
  %51 = getelementptr inbounds [0 x i64], ptr %50, i64 0, i64 1
  store i64 %48, ptr %51, align 8
  %52 = load ptr, ptr %4, align 8
  %53 = load ptr, ptr %5, align 8
  %54 = call zeroext i1 @fold_neg_no_const(ptr noundef %52, ptr noundef %53)
  store i1 %54, ptr %3, align 1
  store i32 1, ptr %8, align 4
  br label %56

55:                                               ; preds = %35
  store i1 false, ptr %3, align 1
  store i32 1, ptr %8, align 4
  br label %56

56:                                               ; preds = %55, %38, %23
  call void @llvm.lifetime.end.p0(i64 1, ptr %7) #13
  call void @llvm.lifetime.end.p0(i64 4, ptr %6) #13
  %57 = load i1, ptr %3, align 1
  ret i1 %57
}