; Function Attrs: nounwind sspstrong uwtable
define internal fastcc noundef zeroext i1 @fold_sub_to_neg(ptr noundef nonnull %0, ptr noundef nonnull %1) unnamed_addr #0 {
  %3 = getelementptr inbounds nuw i8, ptr %1, i64 40
  %4 = load i64, ptr %3, align 8
  %5 = inttoptr i64 %4 to ptr
  %6 = getelementptr i8, ptr %5, i64 48
  %.val.i = load ptr, ptr %6, align 8
  %.val.val.i = load i8, ptr %.val.i, align 8, !range !15, !noundef !16
  %7 = trunc nuw i8 %.val.val.i to i1
  br i1 %7, label %8, label %fold_neg_no_const.exit

8:                                                ; preds = %2
  %9 = getelementptr inbounds nuw i8, ptr %.val.i, i64 40
  %10 = load i64, ptr %9, align 8
  %.not = icmp eq i64 %10, 0
  br i1 %.not, label %11, label %fold_neg_no_const.exit

11:                                               ; preds = %8
  %12 = getelementptr inbounds nuw i8, ptr %0, i64 112
  %13 = load i32, ptr %12, align 8
  switch i32 %13, label %15 [
    i32 0, label %16
    i32 1, label %14
    i32 3, label %fold_neg_no_const.exit
    i32 4, label %fold_neg_no_const.exit
    i32 5, label %fold_neg_no_const.exit
  ]

14:                                               ; preds = %11
  br label %16

15:                                               ; preds = %11
  tail call void @g_assertion_message_expr(ptr noundef null, ptr noundef nonnull @.str, i32 noundef 2658, ptr noundef nonnull @__func__.fold_sub_to_neg, ptr noundef null) #10
  unreachable

16:                                               ; preds = %14, %11
  %.010.ph = phi i32 [ 54, %11 ], [ 114, %14 ]
  %17 = load i32, ptr %1, align 8
  %18 = and i32 %17, -256
  %19 = or disjoint i32 %18, %.010.ph
  store i32 %19, ptr %1, align 8
  %20 = getelementptr inbounds nuw i8, ptr %1, i64 48
  %21 = load i64, ptr %20, align 8
  store i64 %21, ptr %3, align 8
  %22 = inttoptr i64 %21 to ptr
  %23 = getelementptr i8, ptr %22, i64 48
  %.val.i.i = load ptr, ptr %23, align 8
  %24 = getelementptr inbounds nuw i8, ptr %.val.i.i, i64 48
  %25 = load i64, ptr %24, align 8
  %26 = sub i64 0, %25
  %27 = and i64 %25, %26
  %28 = sub i64 0, %27
  %29 = zext nneg i32 %.010.ph to i64
  %30 = getelementptr inbounds nuw [0 x %struct.TCGOpDef], ptr @tcg_op_defs, i64 0, i64 %29, i32 1
  %31 = load i8, ptr %30, align 8
  %32 = icmp eq i8 %31, 1
  tail call void @llvm.assume(i1 %32)
  %33 = load i32, ptr %12, align 8
  %34 = icmp eq i32 %33, 0
  %sext.i.i.i = shl i64 %28, 32
  %35 = ashr exact i64 %sext.i.i.i, 32
  %.031.i.i.i = select i1 %34, i64 %35, i64 %28
  %36 = icmp eq i64 %.031.i.i.i, 0
  %37 = getelementptr inbounds nuw i8, ptr %1, i64 32
  %38 = load i64, ptr %37, align 8
  br i1 %36, label %39, label %41

39:                                               ; preds = %16
  %40 = tail call fastcc i64 @arg_new_constant(ptr noundef nonnull %0, i64 noundef 0)
  tail call fastcc void @tcg_opt_gen_mov(ptr noundef nonnull %0, ptr noundef nonnull %1, i64 noundef %38, i64 noundef %40)
  br label %fold_neg_no_const.exit

41:                                               ; preds = %16
  %42 = inttoptr i64 %38 to ptr
  tail call fastcc void @reset_ts(ptr noundef nonnull %0, ptr noundef %42)
  %43 = getelementptr i8, ptr %42, i64 48
  %.val.i.i.i = load ptr, ptr %43, align 8
  %44 = getelementptr inbounds nuw i8, ptr %.val.i.i.i, i64 48
  store i64 %.031.i.i.i, ptr %44, align 8
  %45 = tail call range(i64 0, 65) i64 @llvm.ctlz.i64(i64 %.031.i.i.i, i1 true)
  %46 = trunc nuw nsw i64 %45 to i32
  %47 = tail call i32 @llvm.umax.i32(i32 %46, i32 33)
  %48 = select i1 %34, i32 %47, i32 %46
  %49 = tail call i32 @llvm.usub.sat.i32(i32 %48, i32 1)
  %50 = zext nneg i32 %49 to i64
  %51 = ashr exact i64 -9223372036854775808, %50
  %52 = getelementptr inbounds nuw i8, ptr %.val.i.i.i, i64 56
  store i64 %51, ptr %52, align 8
  br label %fold_neg_no_const.exit

fold_neg_no_const.exit:                           ; preds = %41, %39, %11, %11, %11, %2, %8
  %.011 = phi i1 [ false, %8 ], [ false, %2 ], [ false, %11 ], [ false, %11 ], [ false, %11 ], [ true, %39 ], [ true, %41 ]
  ret i1 %.011
}